target datalayout = "e-m:e-p270:32:32-p271:32:32-p272:64:64-i64:64-i128:128-f80:128-n8:16:32:64-S128"
target triple = "x86_64-pc-linux-gnu"

%struct._reo_man = type { i32, i32, i32, i32, i32, i32, ptr, ptr, i32, ptr, i32, i32, ptr, ptr, ptr, ptr, i32, i32, i32, i32, i32, i32, double, double, double, ptr, ptr, ptr, ptr, i32, ptr, i32, i32, ptr, i32, i32, i32, ptr, i32, i32, ptr, ptr, i32, i32, i32, i32, i32, i32, i32 }
%struct._reo_plane = type { i32, i32, i32, double, double, double, double, ptr }

; Function Attrs: nounwind uwtable
define void @reoProfileNodesStart(ptr noundef %0) #0 {
  %2 = alloca ptr, align 8
  %3 = alloca i32, align 4
  %4 = alloca i32, align 4
  store ptr %0, ptr %2, align 8, !tbaa !3
  call void @llvm.lifetime.start.p0(i64 4, ptr %3) #6
  call void @llvm.lifetime.start.p0(i64 4, ptr %4) #6
  store i32 0, ptr %3, align 4, !tbaa !8
  store i32 0, ptr %4, align 4, !tbaa !8
  br label %5

5:                                                ; preds = %38, %1
  %6 = load i32, ptr %4, align 4, !tbaa !8
  %7 = load ptr, ptr %2, align 8, !tbaa !3
  %8 = getelementptr inbounds nuw %struct._reo_man, ptr %7, i32 0, i32 11
  %9 = load i32, ptr %8, align 4, !tbaa !10
  %10 = icmp sle i32 %6, %9
  br i1 %10, label %11, label %41

11:                                               ; preds = %5
  %12 = load ptr, ptr %2, align 8, !tbaa !3
  %13 = getelementptr inbounds nuw %struct._reo_man, ptr %12, i32 0, i32 28
  %14 = load ptr, ptr %13, align 8, !tbaa !21
  %15 = load i32, ptr %4, align 4, !tbaa !8
  %16 = sext i32 %15 to i64
  %17 = getelementptr inbounds %struct._reo_plane, ptr %14, i64 %16
  %18 = getelementptr inbounds nuw %struct._reo_plane, ptr %17, i32 0, i32 1
  %19 = load i32, ptr %18, align 4, !tbaa !22
  %20 = sitofp i32 %19 to double
  %21 = load ptr, ptr %2, align 8, !tbaa !3
  %22 = getelementptr inbounds nuw %struct._reo_man, ptr %21, i32 0, i32 28
  %23 = load ptr, ptr %22, align 8, !tbaa !21
  %24 = load i32, ptr %4, align 4, !tbaa !8
  %25 = sext i32 %24 to i64
  %26 = getelementptr inbounds %struct._reo_plane, ptr %23, i64 %25
  %27 = getelementptr inbounds nuw %struct._reo_plane, ptr %26, i32 0, i32 4
  store double %20, ptr %27, align 8, !tbaa !24
  %28 = load ptr, ptr %2, align 8, !tbaa !3
  %29 = getelementptr inbounds nuw %struct._reo_man, ptr %28, i32 0, i32 28
  %30 = load ptr, ptr %29, align 8, !tbaa !21
  %31 = load i32, ptr %4, align 4, !tbaa !8
  %32 = sext i32 %31 to i64
  %33 = getelementptr inbounds %struct._reo_plane, ptr %30, i64 %32
  %34 = getelementptr inbounds nuw %struct._reo_plane, ptr %33, i32 0, i32 1
  %35 = load i32, ptr %34, align 4, !tbaa !22
  %36 = load i32, ptr %3, align 4, !tbaa !8
  %37 = add nsw i32 %36, %35
  store i32 %37, ptr %3, align 4, !tbaa !8
  br label %38

38:                                               ; preds = %11
  %39 = load i32, ptr %4, align 4, !tbaa !8
  %40 = add nsw i32 %39, 1
  store i32 %40, ptr %4, align 4, !tbaa !8
  br label %5, !llvm.loop !25

41:                                               ; preds = %5
  %42 = load ptr, ptr %2, align 8, !tbaa !3
  %43 = getelementptr inbounds nuw %struct._reo_man, ptr %42, i32 0, i32 17
  %44 = load i32, ptr %43, align 4, !tbaa !27
  %45 = load ptr, ptr %2, align 8, !tbaa !3
  %46 = getelementptr inbounds nuw %struct._reo_man, ptr %45, i32 0, i32 16
  store i32 %44, ptr %46, align 8, !tbaa !28
  call void @llvm.lifetime.end.p0(i64 4, ptr %4) #6
  call void @llvm.lifetime.end.p0(i64 4, ptr %3) #6
  ret void
}