; Function Attrs: nofree norecurse nosync nounwind memory(readwrite, inaccessiblemem: none) uwtable
define void @reoProfileNodesStart(ptr noundef captures(none) %0) local_unnamed_addr #0 {
  %2 = getelementptr inbounds nuw i8, ptr %0, i64 60
  %3 = load i32, ptr %2, align 4, !tbaa !3
  %.not12 = icmp slt i32 %3, 0
  br i1 %.not12, label %._crit_edge, label %.lr.ph

.lr.ph:                                           ; preds = %1
  %4 = getelementptr inbounds nuw i8, ptr %0, i64 168
  %5 = load ptr, ptr %4, align 8, !tbaa !18
  %6 = add nuw i32 %3, 1
  %wide.trip.count = zext i32 %6 to i64
  br label %7

7:                                                ; preds = %.lr.ph, %7
  %indvars.iv = phi i64 [ 0, %.lr.ph ], [ %indvars.iv.next, %7 ]
  %8 = getelementptr inbounds nuw %struct._reo_plane, ptr %5, i64 %indvars.iv
  %9 = getelementptr inbounds nuw i8, ptr %8, i64 4
  %10 = load i32, ptr %9, align 4, !tbaa !19
  %11 = sitofp i32 %10 to double
  %12 = getelementptr inbounds nuw i8, ptr %8, i64 24
  store double %11, ptr %12, align 8, !tbaa !21
  %indvars.iv.next = add nuw nsw i64 %indvars.iv, 1
  %exitcond.not = icmp eq i64 %indvars.iv.next, %wide.trip.count
  br i1 %exitcond.not, label %._crit_edge, label %7, !llvm.loop !22

._crit_edge:                                      ; preds = %7, %1
  %13 = getelementptr inbounds nuw i8, ptr %0, i64 100
  %14 = load i32, ptr %13, align 4, !tbaa !24
  %15 = getelementptr inbounds nuw i8, ptr %0, i64 96
  store i32 %14, ptr %15, align 8, !tbaa !25
  ret void
}